target datalayout = "e-m:e-p270:32:32-p271:32:32-p272:64:64-i64:64-i128:128-f80:128-n8:16:32:64-S128"
target triple = "x86_64-pc-linux-gnu"

%struct.gmx_enxnm_t = type { ptr, ptr }

@.str.9 = private unnamed_addr constant [122 x i8] c"generated/home/dtcxzyw/WorkSpace/Projects/compilers/llvm-opt-benchmark/bench/gromacs/gromacs/src/gromacs/fileio/enxio.cpp\00", align 1
@.str.30 = private unnamed_addr constant [12 x i8] c"nms[i].name\00", align 1
@.str.31 = private unnamed_addr constant [12 x i8] c"nms[i].unit\00", align 1
@.str.32 = private unnamed_addr constant [4 x i8] c"nms\00", align 1

; Function Attrs: mustprogress uwtable
define internal void @_ZL14gmx_sfree_implI11gmx_enxnm_tEvPKcS2_iPT_(ptr noundef %0, ptr noundef %1, i32 noundef %2, ptr noundef %3) #1 {
  %5 = alloca ptr, align 8
  %6 = alloca ptr, align 8
  %7 = alloca i32, align 4
  %8 = alloca ptr, align 8
  store ptr %0, ptr %5, align 8
  store ptr %1, ptr %6, align 8
  store i32 %2, ptr %7, align 4
  store ptr %3, ptr %8, align 8
  %9 = load ptr, ptr %5, align 8
  %10 = load ptr, ptr %6, align 8
  %11 = load i32, ptr %7, align 4
  %12 = load ptr, ptr %8, align 8
  call void @_Z9save_freePKcS0_iPv(ptr noundef %9, ptr noundef %10, i32 noundef %11, ptr noundef %12)
  ret void
}

; Function Attrs: mustprogress uwtable
define internal void @_ZL14gmx_sfree_implIcEvPKcS1_iPT_(ptr noundef %0, ptr noundef %1, i32 noundef %2, ptr noundef %3) #1 {
  %5 = alloca ptr, align 8
  %6 = alloca ptr, align 8
  %7 = alloca i32, align 4
  %8 = alloca ptr, align 8
  store ptr %0, ptr %5, align 8
  store ptr %1, ptr %6, align 8
  store i32 %2, ptr %7, align 4
  store ptr %3, ptr %8, align 8
  %9 = load ptr, ptr %5, align 8
  %10 = load ptr, ptr %6, align 8
  %11 = load i32, ptr %7, align 4
  %12 = load ptr, ptr %8, align 8
  call void @_Z9save_freePKcS0_iPv(ptr noundef %9, ptr noundef %10, i32 noundef %11, ptr noundef %12)
  ret void
}

; Function Attrs: mustprogress uwtable
define void @_Z11free_enxnmsiP11gmx_enxnm_t(i32 noundef %0, ptr noundef %1) #1 {
  %3 = alloca i32, align 4
  %4 = alloca ptr, align 8
  %5 = alloca i32, align 4
  store i32 %0, ptr %3, align 4
  store ptr %1, ptr %4, align 8
  store i32 0, ptr %5, align 4
  br label %6

6:                                                ; preds = %23, %2
  %7 = load i32, ptr %5, align 4
  %8 = load i32, ptr %3, align 4
  %9 = icmp slt i32 %7, %8
  br i1 %9, label %10, label %26

10:                                               ; preds = %6
  %11 = load ptr, ptr %4, align 8
  %12 = load i32, ptr %5, align 4
  %13 = sext i32 %12 to i64
  %14 = getelementptr inbounds %struct.gmx_enxnm_t, ptr %11, i64 %13
  %15 = getelementptr inbounds %struct.gmx_enxnm_t, ptr %14, i32 0, i32 0
  %16 = load ptr, ptr %15, align 8
  call void @_ZL14gmx_sfree_implIcEvPKcS1_iPT_(ptr noundef @.str.30, ptr noundef @.str.9, i32 noundef 750, ptr noundef %16)
  %17 = load ptr, ptr %4, align 8
  %18 = load i32, ptr %5, align 4
  %19 = sext i32 %18 to i64
  %20 = getelementptr inbounds %struct.gmx_enxnm_t, ptr %17, i64 %19
  %21 = getelementptr inbounds %struct.gmx_enxnm_t, ptr %20, i32 0, i32 1
  %22 = load ptr, ptr %21, align 8
  call void @_ZL14gmx_sfree_implIcEvPKcS1_iPT_(ptr noundef @.str.31, ptr noundef @.str.9, i32 noundef 751, ptr noundef %22)
  br label %23

23:                                               ; preds = %10
  %24 = load i32, ptr %5, align 4
  %25 = add nsw i32 %24, 1
  store i32 %25, ptr %5, align 4
  br label %6, !llvm.loop !13

26:                                               ; preds = %6
  %27 = load ptr, ptr %4, align 8
  call void @_ZL14gmx_sfree_implI11gmx_enxnm_tEvPKcS2_iPT_(ptr noundef @.str.32, ptr noundef @.str.9, i32 noundef 754, ptr noundef %27)
  ret void
}