; Function Attrs: mustprogress uwtable
define void @_Z11free_enxnmsiP11gmx_enxnm_t(i32 noundef %0, ptr noundef %1) local_unnamed_addr #1 {
  %3 = icmp sgt i32 %0, 0
  br i1 %3, label %.lr.ph.preheader, label %._crit_edge

.lr.ph.preheader:                                 ; preds = %2
  %wide.trip.count = zext nneg i32 %0 to i64
  br label %.lr.ph

.lr.ph:                                           ; preds = %.lr.ph.preheader, %.lr.ph
  %indvars.iv = phi i64 [ 0, %.lr.ph.preheader ], [ %indvars.iv.next, %.lr.ph ]
  %4 = getelementptr inbounds %struct.gmx_enxnm_t, ptr %1, i64 %indvars.iv
  %5 = load ptr, ptr %4, align 8
  tail call void @_Z9save_freePKcS0_iPv(ptr noundef nonnull @.str.30, ptr noundef nonnull @.str.9, i32 noundef 750, ptr noundef %5)
  %6 = getelementptr inbounds i8, ptr %4, i64 8
  %7 = load ptr, ptr %6, align 8
  tail call void @_Z9save_freePKcS0_iPv(ptr noundef nonnull @.str.31, ptr noundef nonnull @.str.9, i32 noundef 751, ptr noundef %7)
  %indvars.iv.next = add nuw nsw i64 %indvars.iv, 1
  %exitcond.not = icmp eq i64 %indvars.iv.next, %wide.trip.count
  br i1 %exitcond.not, label %._crit_edge, label %.lr.ph, !llvm.loop !16

._crit_edge:                                      ; preds = %.lr.ph, %2
  tail call void @_Z9save_freePKcS0_iPv(ptr noundef nonnull @.str.32, ptr noundef nonnull @.str.9, i32 noundef 754, ptr noundef %1)
  ret void
}